; Function Attrs: null_pointer_is_valid sspstrong uwtable
define internal fastcc i32 @dissect_kafka_stop_replica_response(ptr noundef %0, ptr noundef %1, ptr noundef %2, i32 noundef %3, i16 noundef signext %4) unnamed_addr #0 {
  %6 = tail call zeroext i16 @tvb_get_ntohs(ptr noundef %0, i32 noundef %3)
  %7 = load i32, ptr @hf_kafka_error, align 4
  %8 = tail call ptr @proto_tree_add_item(ptr noundef %2, i32 noundef %7, ptr noundef %0, i32 noundef %3, i32 noundef 2, i32 noundef 0)
  %.not.i.i = icmp eq i16 %6, 0
  br i1 %.not.i.i, label %dissect_kafka_error.exit, label %9

9:                                                ; preds = %5
  %10 = getelementptr inbounds nuw i8, ptr %1, i64 8
  %11 = load ptr, ptr %10, align 8
  %12 = sext i16 %6 to i32
  %13 = tail call ptr @val_to_str(i32 noundef %12, ptr noundef nonnull @kafka_errors, ptr noundef nonnull @.str.628)
  tail call void (ptr, i32, ptr, ...) @col_append_fstr(ptr noundef %11, i32 noundef 25, ptr noundef nonnull @.str.742, ptr noundef %13)
  br label %dissect_kafka_error.exit

dissect_kafka_error.exit:                         ; preds = %5, %9
  %14 = add i32 %3, 2
  %15 = icmp sgt i16 %4, 1
  %16 = zext i1 %15 to i32
  %17 = tail call fastcc i32 @dissect_kafka_array(ptr noundef %2, ptr noundef %0, ptr noundef %1, i32 noundef %14, i32 noundef %16, i16 noundef signext %4, ptr noundef nonnull @dissect_kafka_stop_replica_response_partition, ptr noundef null)
  br i1 %15, label %18, label %20

18:                                               ; preds = %dissect_kafka_error.exit
  %19 = tail call fastcc i32 @dissect_kafka_tagged_fields(ptr noundef %0, ptr noundef %1, ptr noundef %2, i32 noundef %17)
  br label %20

20:                                               ; preds = %18, %dissect_kafka_error.exit
  %.0 = phi i32 [ %19, %18 ], [ %17, %dissect_kafka_error.exit ]
  ret i32 %.0
}